target datalayout = "e-m:e-p270:32:32-p271:32:32-p272:64:64-i64:64-i128:128-f80:128-n8:16:32:64-S128"
target triple = "x86_64-pc-linux-gnu"

%struct.lua_State = type { i8, i8, i8, i8, i8, i8, i8, ptr, ptr, ptr, ptr, ptr, ptr, ptr, ptr, i32, i32, i16, i16, i32, ptr, ptr, ptr, ptr, ptr }
%struct.lua_TValue = type { %union.Value, [1 x i32], i32 }
%union.Value = type { ptr }
%struct.LuaTable = type { i8, i8, i8, i8, i8, i8, i8, i8, i32, %union.anon.2, ptr, ptr, ptr, ptr }
%union.anon.2 = type { i32 }

@.str.31 = private unnamed_addr constant [27 x i8] c"too many results to unpack\00", align 1

; Function Attrs: mustprogress uwtable
define internal noundef i32 @_ZL7tunpackP9lua_State(ptr noundef %0) #0 {
  %2 = alloca i32, align 4
  %3 = alloca ptr, align 8
  %4 = alloca ptr, align 8
  %5 = alloca i32, align 4
  %6 = alloca i32, align 4
  %7 = alloca i32, align 4
  %8 = alloca i32, align 4
  %9 = alloca ptr, align 8
  %10 = alloca ptr, align 8
  store ptr %0, ptr %3, align 8, !tbaa !4
  %11 = load ptr, ptr %3, align 8, !tbaa !4
  call void @_Z14luaL_checktypeP9lua_Stateii(ptr noundef %11, i32 noundef 1, i32 noundef 6)
  call void @llvm.lifetime.start.p0(i64 8, ptr %4) #7
  %12 = load ptr, ptr %3, align 8, !tbaa !4
  %13 = getelementptr inbounds nuw %struct.lua_State, ptr %12, i32 0, i32 8
  %14 = load ptr, ptr %13, align 8, !tbaa !9
  %15 = getelementptr inbounds nuw %struct.lua_TValue, ptr %14, i32 0, i32 0
  %16 = load ptr, ptr %15, align 8, !tbaa !21
  store ptr %16, ptr %4, align 8, !tbaa !22
  call void @llvm.lifetime.start.p0(i64 4, ptr %5) #7
  %17 = load ptr, ptr %3, align 8, !tbaa !4
  %18 = call noundef i32 @_Z15luaL_optintegerP9lua_Stateii(ptr noundef %17, i32 noundef 2, i32 noundef 1)
  store i32 %18, ptr %5, align 4, !tbaa !23
  call void @llvm.lifetime.start.p0(i64 4, ptr %6) #7
  %19 = load ptr, ptr %3, align 8, !tbaa !4
  %20 = call noundef i32 @_Z8lua_typeP9lua_Statei(ptr noundef %19, i32 noundef 3)
  %21 = icmp sle i32 %20, 0
  br i1 %21, label %22, label %25

22:                                               ; preds = %1
  %23 = load ptr, ptr %3, align 8, !tbaa !4
  %24 = call noundef i32 @_Z10lua_objlenP9lua_Statei(ptr noundef %23, i32 noundef 1)
  br label %28

25:                                               ; preds = %1
  %26 = load ptr, ptr %3, align 8, !tbaa !4
  %27 = call noundef i32 @_Z17luaL_checkintegerP9lua_Statei(ptr noundef %26, i32 noundef 3)
  br label %28

28:                                               ; preds = %25, %22
  %29 = phi i32 [ %24, %22 ], [ %27, %25 ]
  store i32 %29, ptr %6, align 4, !tbaa !23
  %30 = load i32, ptr %5, align 4, !tbaa !23
  %31 = load i32, ptr %6, align 4, !tbaa !23
  %32 = icmp sgt i32 %30, %31
  br i1 %32, label %33, label %34

33:                                               ; preds = %28
  store i32 0, ptr %2, align 4
  store i32 1, ptr %7, align 4
  br label %105

34:                                               ; preds = %28
  call void @llvm.lifetime.start.p0(i64 4, ptr %8) #7
  %35 = load i32, ptr %6, align 4, !tbaa !23
  %36 = load i32, ptr %5, align 4, !tbaa !23
  %37 = sub i32 %35, %36
  store i32 %37, ptr %8, align 4, !tbaa !23
  %38 = load i32, ptr %8, align 4, !tbaa !23
  %39 = icmp uge i32 %38, 2147483647
  br i1 %39, label %46, label %40

40:                                               ; preds = %34
  %41 = load ptr, ptr %3, align 8, !tbaa !4
  %42 = load i32, ptr %8, align 4, !tbaa !23
  %43 = add i32 %42, 1
  store i32 %43, ptr %8, align 4, !tbaa !23
  %44 = call noundef i32 @_Z14lua_checkstackP9lua_Statei(ptr noundef %41, i32 noundef %43)
  %45 = icmp ne i32 %44, 0
  br i1 %45, label %48, label %46

46:                                               ; preds = %40, %34
  %47 = load ptr, ptr %3, align 8, !tbaa !4
  call void (ptr, ptr, ...) @_Z11luaL_errorLP9lua_StatePKcz(ptr noundef %47, ptr noundef @.str.31) #8
  unreachable

48:                                               ; preds = %40
  %49 = load i32, ptr %5, align 4, !tbaa !23
  %50 = icmp eq i32 %49, 1
  br i1 %50, label %51, label %87

51:                                               ; preds = %48
  %52 = load i32, ptr %8, align 4, !tbaa !23
  %53 = load ptr, ptr %4, align 8, !tbaa !22
  %54 = getelementptr inbounds nuw %struct.LuaTable, ptr %53, i32 0, i32 8
  %55 = load i32, ptr %54, align 8, !tbaa !24
  %56 = icmp sle i32 %52, %55
  br i1 %56, label %57, label %87

57:                                               ; preds = %51
  store i32 0, ptr %5, align 4, !tbaa !23
  br label %58

58:                                               ; preds = %77, %57
  %59 = load i32, ptr %5, align 4, !tbaa !23
  %60 = load i32, ptr %8, align 4, !tbaa !23
  %61 = icmp slt i32 %59, %60
  br i1 %61, label %62, label %80

62:                                               ; preds = %58
  call void @llvm.lifetime.start.p0(i64 8, ptr %9) #7
  %63 = load ptr, ptr %4, align 8, !tbaa !22
  %64 = getelementptr inbounds nuw %struct.LuaTable, ptr %63, i32 0, i32 11
  %65 = load ptr, ptr %64, align 8, !tbaa !27
  %66 = load i32, ptr %5, align 4, !tbaa !23
  %67 = sext i32 %66 to i64
  %68 = getelementptr inbounds %struct.lua_TValue, ptr %65, i64 %67
  store ptr %68, ptr %9, align 8, !tbaa !28
  call void @llvm.lifetime.start.p0(i64 8, ptr %10) #7
  %69 = load ptr, ptr %3, align 8, !tbaa !4
  %70 = getelementptr inbounds nuw %struct.lua_State, ptr %69, i32 0, i32 7
  %71 = load ptr, ptr %70, align 8, !tbaa !29
  %72 = load i32, ptr %5, align 4, !tbaa !23
  %73 = sext i32 %72 to i64
  %74 = getelementptr inbounds %struct.lua_TValue, ptr %71, i64 %73
  store ptr %74, ptr %10, align 8, !tbaa !28
  %75 = load ptr, ptr %9, align 8, !tbaa !28
  %76 = load ptr, ptr %10, align 8, !tbaa !28
  call void @llvm.memcpy.p0.p0.i64(ptr align 8 %76, ptr align 8 %75, i64 16, i1 false), !tbaa.struct !30
  call void @llvm.lifetime.end.p0(i64 8, ptr %10) #7
  call void @llvm.lifetime.end.p0(i64 8, ptr %9) #7
  br label %77

77:                                               ; preds = %62
  %78 = load i32, ptr %5, align 4, !tbaa !23
  %79 = add nsw i32 %78, 1
  store i32 %79, ptr %5, align 4, !tbaa !23
  br label %58, !llvm.loop !31

80:                                               ; preds = %58
  %81 = load i32, ptr %8, align 4, !tbaa !23
  %82 = load ptr, ptr %3, align 8, !tbaa !4
  %83 = getelementptr inbounds nuw %struct.lua_State, ptr %82, i32 0, i32 7
  %84 = load ptr, ptr %83, align 8, !tbaa !29
  %85 = zext i32 %81 to i64
  %86 = getelementptr inbounds nuw %struct.lua_TValue, ptr %84, i64 %85
  store ptr %86, ptr %83, align 8, !tbaa !29
  br label %103

87:                                               ; preds = %51, %48
  br label %88

88:                                               ; preds = %96, %87
  %89 = load i32, ptr %5, align 4, !tbaa !23
  %90 = load i32, ptr %6, align 4, !tbaa !23
  %91 = icmp slt i32 %89, %90
  br i1 %91, label %92, label %99

92:                                               ; preds = %88
  %93 = load ptr, ptr %3, align 8, !tbaa !4
  %94 = load i32, ptr %5, align 4, !tbaa !23
  %95 = call noundef i32 @_Z11lua_rawgetiP9lua_Stateii(ptr noundef %93, i32 noundef 1, i32 noundef %94)
  br label %96

96:                                               ; preds = %92
  %97 = load i32, ptr %5, align 4, !tbaa !23
  %98 = add nsw i32 %97, 1
  store i32 %98, ptr %5, align 4, !tbaa !23
  br label %88, !llvm.loop !33

99:                                               ; preds = %88
  %100 = load ptr, ptr %3, align 8, !tbaa !4
  %101 = load i32, ptr %6, align 4, !tbaa !23
  %102 = call noundef i32 @_Z11lua_rawgetiP9lua_Stateii(ptr noundef %100, i32 noundef 1, i32 noundef %101)
  br label %103

103:                                              ; preds = %99, %80
  %104 = load i32, ptr %8, align 4, !tbaa !23
  store i32 %104, ptr %2, align 4
  store i32 1, ptr %7, align 4
  call void @llvm.lifetime.end.p0(i64 4, ptr %8) #7
  br label %105

105:                                              ; preds = %103, %33
  call void @llvm.lifetime.end.p0(i64 4, ptr %6) #7
  call void @llvm.lifetime.end.p0(i64 4, ptr %5) #7
  call void @llvm.lifetime.end.p0(i64 8, ptr %4) #7
  %106 = load i32, ptr %2, align 4
  ret i32 %106
}