; Function Attrs: mustprogress uwtable
define internal noundef range(i32 0, -2147483648) i32 @_ZL7tunpackP9lua_State(ptr noundef %0) #0 {
  tail call void @_Z14luaL_checktypeP9lua_Stateii(ptr noundef %0, i32 noundef 1, i32 noundef 6)
  %2 = getelementptr inbounds nuw i8, ptr %0, i64 16
  %3 = load ptr, ptr %2, align 8, !tbaa !4
  %4 = load ptr, ptr %3, align 8, !tbaa !19
  %5 = tail call noundef i32 @_Z15luaL_optintegerP9lua_Stateii(ptr noundef %0, i32 noundef 2, i32 noundef 1)
  %6 = tail call noundef i32 @_Z8lua_typeP9lua_Statei(ptr noundef %0, i32 noundef 3)
  %7 = icmp slt i32 %6, 1
  br i1 %7, label %8, label %10

8:                                                ; preds = %1
  %9 = tail call noundef i32 @_Z10lua_objlenP9lua_Statei(ptr noundef nonnull %0, i32 noundef 1)
  br label %12

10:                                               ; preds = %1
  %11 = tail call noundef i32 @_Z17luaL_checkintegerP9lua_Statei(ptr noundef nonnull %0, i32 noundef 3)
  br label %12

12:                                               ; preds = %10, %8
  %13 = phi i32 [ %9, %8 ], [ %11, %10 ]
  %14 = icmp sgt i32 %5, %13
  br i1 %14, label %43, label %15

15:                                               ; preds = %12
  %16 = sub i32 %13, %5
  %17 = icmp ugt i32 %16, 2147483646
  br i1 %17, label %21, label %18

18:                                               ; preds = %15
  %19 = add nuw nsw i32 %16, 1
  %20 = tail call noundef i32 @_Z14lua_checkstackP9lua_Statei(ptr noundef nonnull %0, i32 noundef %19)
  %.not = icmp eq i32 %20, 0
  br i1 %.not, label %21, label %22

21:                                               ; preds = %18, %15
  tail call void (ptr, ptr, ...) @_Z11luaL_errorLP9lua_StatePKcz(ptr noundef nonnull %0, ptr noundef nonnull @.str.31) #6
  unreachable

22:                                               ; preds = %18
  %23 = icmp eq i32 %5, 1
  br i1 %23, label %24, label %38

24:                                               ; preds = %22
  %25 = getelementptr inbounds nuw i8, ptr %4, i64 8
  %26 = load i32, ptr %25, align 8, !tbaa !20
  %.not41.not = icmp slt i32 %16, %26
  br i1 %.not41.not, label %.lr.ph46, label %38

.lr.ph46:                                         ; preds = %24
  %27 = getelementptr inbounds nuw i8, ptr %4, i64 24
  %28 = getelementptr inbounds nuw i8, ptr %0, i64 8
  %wide.trip.count = zext i32 %13 to i64
  br label %29

29:                                               ; preds = %.lr.ph46, %29
  %indvars.iv = phi i64 [ 0, %.lr.ph46 ], [ %indvars.iv.next, %29 ]
  %30 = load ptr, ptr %27, align 8, !tbaa !23
  %31 = getelementptr inbounds nuw %struct.lua_TValue, ptr %30, i64 %indvars.iv
  %32 = load ptr, ptr %28, align 8, !tbaa !24
  %33 = getelementptr inbounds nuw %struct.lua_TValue, ptr %32, i64 %indvars.iv
  tail call void @llvm.memcpy.p0.p0.i64(ptr noundef nonnull align 8 dereferenceable(16) %33, ptr noundef nonnull align 8 dereferenceable(16) %31, i64 16, i1 false), !tbaa.struct !25
  %indvars.iv.next = add nuw nsw i64 %indvars.iv, 1
  %exitcond49.not = icmp eq i64 %indvars.iv.next, %wide.trip.count
  br i1 %exitcond49.not, label %._crit_edge47, label %29, !llvm.loop !27

._crit_edge47:                                    ; preds = %29
  %34 = getelementptr inbounds nuw i8, ptr %0, i64 8
  %35 = load ptr, ptr %34, align 8, !tbaa !24
  %36 = zext nneg i32 %19 to i64
  %37 = getelementptr inbounds nuw %struct.lua_TValue, ptr %35, i64 %36
  store ptr %37, ptr %34, align 8, !tbaa !24
  br label %43

38:                                               ; preds = %24, %22
  %39 = icmp slt i32 %5, %13
  br i1 %39, label %.lr.ph, label %._crit_edge

.lr.ph:                                           ; preds = %38, %.lr.ph
  %.143 = phi i32 [ %41, %.lr.ph ], [ %5, %38 ]
  %40 = tail call noundef i32 @_Z11lua_rawgetiP9lua_Stateii(ptr noundef nonnull %0, i32 noundef 1, i32 noundef %.143)
  %41 = add i32 %.143, 1
  %exitcond.not = icmp eq i32 %41, %13
  br i1 %exitcond.not, label %._crit_edge, label %.lr.ph, !llvm.loop !29

._crit_edge:                                      ; preds = %.lr.ph, %38
  %42 = tail call noundef i32 @_Z11lua_rawgetiP9lua_Stateii(ptr noundef nonnull %0, i32 noundef 1, i32 noundef %13)
  br label %43

43:                                               ; preds = %._crit_edge47, %._crit_edge, %12
  %.0 = phi i32 [ 0, %12 ], [ %19, %._crit_edge ], [ %19, %._crit_edge47 ]
  ret i32 %.0
}